; Function Attrs: mustprogress uwtable
define internal void @_ZN12_GLOBAL__N_120HQTransportByteEvent11onByteEventEN4quic10QuicSocket9ByteEventE(ptr noundef nonnull align 8 dereferenceable(80) %this, ptr nocapture noundef readonly byval(%"struct.quic::QuicSocket::ByteEvent") align 8 %byteEvent) unnamed_addr #4 align 2 {
entry:
  %txn_ = getelementptr inbounds i8, ptr %this, i64 64
  %0 = load ptr, ptr %txn_, align 8
  %tobool.not = icmp eq ptr %0, null
  br i1 %tobool.not, label %delete.notnull, label %if.then

if.then:                                          ; preds = %entry
  %type = getelementptr inbounds i8, ptr %byteEvent, i64 16
  %1 = load i32, ptr %type, align 8
  switch i32 %1, label %delete.notnull [
    i32 2, label %sw.bb
    i32 1, label %sw.bb3
  ]

sw.bb:                                            ; preds = %if.then
  tail call void @_ZN8proxygen15HTTPTransaction26onEgressTrackedByteEventTXERKNS_9ByteEventE(ptr noundef nonnull align 8 dereferenceable(912) %0, ptr noundef nonnull align 8 dereferenceable(64) %this)
  br label %delete.notnull

sw.bb3:                                           ; preds = %if.then
  tail call void @_ZN8proxygen15HTTPTransaction27onEgressTrackedByteEventAckERKNS_9ByteEventE(ptr noundef nonnull align 8 dereferenceable(912) %0, ptr noundef nonnull align 8 dereferenceable(64) %this)
  br label %delete.notnull

delete.notnull:                                   ; preds = %entry, %sw.bb3, %sw.bb, %if.then
  %vtable = load ptr, ptr %this, align 8
  %vfn = getelementptr inbounds i8, ptr %vtable, i64 8
  %2 = load ptr, ptr %vfn, align 8
  tail call void %2(ptr noundef nonnull align 8 dereferenceable(80) %this) #17
  ret void
}